target datalayout = "e-m:e-p270:32:32-p271:32:32-p272:64:64-i64:64-i128:128-f80:128-n8:16:32:64-S128"
target triple = "x86_64-pc-linux-gnu"

%struct._generic_ARKInterp = type { ptr, ptr }
%struct._generic_ARKInterpOps = type { ptr, ptr, ptr, ptr, ptr, ptr, ptr }

; Function Attrs: nounwind uwtable
define i32 @arkInterpResize(ptr noundef %0, ptr noundef %1, ptr noundef %2, ptr noundef %3, i64 noundef %4, i64 noundef %5, ptr noundef %6) #0 {
  %8 = alloca i32, align 4
  %9 = alloca ptr, align 8
  %10 = alloca ptr, align 8
  %11 = alloca ptr, align 8
  %12 = alloca ptr, align 8
  %13 = alloca i64, align 8
  %14 = alloca i64, align 8
  %15 = alloca ptr, align 8
  store ptr %0, ptr %9, align 8, !tbaa !3
  store ptr %1, ptr %10, align 8, !tbaa !8
  store ptr %2, ptr %11, align 8, !tbaa !10
  store ptr %3, ptr %12, align 8, !tbaa !10
  store i64 %4, ptr %13, align 8, !tbaa !11
  store i64 %5, ptr %14, align 8, !tbaa !11
  store ptr %6, ptr %15, align 8, !tbaa !13
  %16 = load ptr, ptr %10, align 8, !tbaa !8
  %17 = icmp eq ptr %16, null
  br i1 %17, label %18, label %19

18:                                               ; preds = %7
  store i32 0, ptr %8, align 4
  br label %33

19:                                               ; preds = %7
  %20 = load ptr, ptr %10, align 8, !tbaa !8
  %21 = getelementptr inbounds nuw %struct._generic_ARKInterp, ptr %20, i32 0, i32 1
  %22 = load ptr, ptr %21, align 8, !tbaa !15
  %23 = getelementptr inbounds nuw %struct._generic_ARKInterpOps, ptr %22, i32 0, i32 0
  %24 = load ptr, ptr %23, align 8, !tbaa !18
  %25 = load ptr, ptr %9, align 8, !tbaa !3
  %26 = load ptr, ptr %10, align 8, !tbaa !8
  %27 = load ptr, ptr %11, align 8, !tbaa !10
  %28 = load ptr, ptr %12, align 8, !tbaa !10
  %29 = load i64, ptr %13, align 8, !tbaa !11
  %30 = load i64, ptr %14, align 8, !tbaa !11
  %31 = load ptr, ptr %15, align 8, !tbaa !13
  %32 = call i32 %24(ptr noundef %25, ptr noundef %26, ptr noundef %27, ptr noundef %28, i64 noundef %29, i64 noundef %30, ptr noundef %31)
  store i32 %32, ptr %8, align 4
  br label %33

33:                                               ; preds = %19, %18
  %34 = load i32, ptr %8, align 4
  ret i32 %34
}