; Function Attrs: nounwind uwtable
define i32 @arkInterpResize(ptr noundef %0, ptr noundef %1, ptr noundef %2, ptr noundef %3, i64 noundef %4, i64 noundef %5, ptr noundef %6) local_unnamed_addr #0 {
  %8 = icmp eq ptr %1, null
  br i1 %8, label %14, label %9

9:                                                ; preds = %7
  %10 = getelementptr inbounds nuw i8, ptr %1, i64 8
  %11 = load ptr, ptr %10, align 8, !tbaa !3
  %12 = load ptr, ptr %11, align 8, !tbaa !9
  %13 = tail call i32 %12(ptr noundef %0, ptr noundef nonnull %1, ptr noundef %2, ptr noundef %3, i64 noundef %4, i64 noundef %5, ptr noundef %6) #14
  br label %14

14:                                               ; preds = %7, %9
  %.0 = phi i32 [ %13, %9 ], [ 0, %7 ]
  ret i32 %.0
}